target datalayout = "e-m:e-p270:32:32-p271:32:32-p272:64:64-i64:64-i128:128-f80:128-n8:16:32:64-S128"
target triple = "x86_64-pc-linux-gnu"

%struct.GeoHashRange = type { double, double }
%struct.GeoHashBits = type { i64, i8 }

; Function Attrs: nounwind uwtable
define dso_local i32 @geohashEncode(ptr noundef %0, ptr noundef %1, double noundef %2, double noundef %3, i8 noundef zeroext %4, ptr noundef %5) #0 {
  %7 = alloca i32, align 4
  %8 = alloca ptr, align 8
  %9 = alloca ptr, align 8
  %10 = alloca double, align 8
  %11 = alloca double, align 8
  %12 = alloca i8, align 1
  %13 = alloca ptr, align 8
  %14 = alloca double, align 8
  %15 = alloca double, align 8
  store ptr %0, ptr %8, align 8, !tbaa !5
  store ptr %1, ptr %9, align 8, !tbaa !5
  store double %2, ptr %10, align 8, !tbaa !13
  store double %3, ptr %11, align 8, !tbaa !13
  store i8 %4, ptr %12, align 1, !tbaa !14
  store ptr %5, ptr %13, align 8, !tbaa !5
  %16 = load ptr, ptr %13, align 8, !tbaa !5
  %17 = icmp eq ptr %16, null
  br i1 %17, label %52, label %18

18:                                               ; preds = %6
  %19 = load i8, ptr %12, align 1, !tbaa !14
  %20 = zext i8 %19 to i32
  %21 = icmp sgt i32 %20, 32
  br i1 %21, label %52, label %22

22:                                               ; preds = %18
  %23 = load i8, ptr %12, align 1, !tbaa !14
  %24 = zext i8 %23 to i32
  %25 = icmp eq i32 %24, 0
  br i1 %25, label %52, label %26

26:                                               ; preds = %22
  %27 = load ptr, ptr %9, align 8, !tbaa !5
  %28 = icmp eq ptr %27, null
  br i1 %28, label %52, label %29

29:                                               ; preds = %26
  %30 = load ptr, ptr %9, align 8, !tbaa !5
  %31 = getelementptr inbounds nuw %struct.GeoHashRange, ptr %30, i32 0, i32 1
  %32 = load double, ptr %31, align 8, !tbaa !9
  %33 = fcmp une double %32, 0.000000e+00
  br i1 %33, label %39, label %34

34:                                               ; preds = %29
  %35 = load ptr, ptr %9, align 8, !tbaa !5
  %36 = getelementptr inbounds nuw %struct.GeoHashRange, ptr %35, i32 0, i32 0
  %37 = load double, ptr %36, align 8, !tbaa !12
  %38 = fcmp une double %37, 0.000000e+00
  br i1 %38, label %39, label %52

39:                                               ; preds = %34, %29
  %40 = load ptr, ptr %8, align 8, !tbaa !5
  %41 = icmp eq ptr %40, null
  br i1 %41, label %52, label %42

42:                                               ; preds = %39
  %43 = load ptr, ptr %8, align 8, !tbaa !5
  %44 = getelementptr inbounds nuw %struct.GeoHashRange, ptr %43, i32 0, i32 1
  %45 = load double, ptr %44, align 8, !tbaa !9
  %46 = fcmp une double %45, 0.000000e+00
  br i1 %46, label %53, label %47

47:                                               ; preds = %42
  %48 = load ptr, ptr %8, align 8, !tbaa !5
  %49 = getelementptr inbounds nuw %struct.GeoHashRange, ptr %48, i32 0, i32 0
  %50 = load double, ptr %49, align 8, !tbaa !12
  %51 = fcmp une double %50, 0.000000e+00
  br i1 %51, label %53, label %52

52:                                               ; preds = %47, %39, %34, %26, %22, %18, %6
  store i32 0, ptr %7, align 4
  br label %144

53:                                               ; preds = %47, %42
  %54 = load double, ptr %10, align 8, !tbaa !13
  %55 = fcmp ogt double %54, 1.800000e+02
  br i1 %55, label %65, label %56

56:                                               ; preds = %53
  %57 = load double, ptr %10, align 8, !tbaa !13
  %58 = fcmp olt double %57, -1.800000e+02
  br i1 %58, label %65, label %59

59:                                               ; preds = %56
  %60 = load double, ptr %11, align 8, !tbaa !13
  %61 = fcmp ogt double %60, 0x40554345B1A57F00
  br i1 %61, label %65, label %62

62:                                               ; preds = %59
  %63 = load double, ptr %11, align 8, !tbaa !13
  %64 = fcmp olt double %63, 0xC0554345B1A57F00
  br i1 %64, label %65, label %66

65:                                               ; preds = %62, %59, %56, %53
  store i32 0, ptr %7, align 4
  br label %144

66:                                               ; preds = %62
  %67 = load ptr, ptr %13, align 8, !tbaa !5
  %68 = getelementptr inbounds nuw %struct.GeoHashBits, ptr %67, i32 0, i32 0
  store i64 0, ptr %68, align 8, !tbaa !15
  %69 = load i8, ptr %12, align 1, !tbaa !14
  %70 = load ptr, ptr %13, align 8, !tbaa !5
  %71 = getelementptr inbounds nuw %struct.GeoHashBits, ptr %70, i32 0, i32 1
  store i8 %69, ptr %71, align 8, !tbaa !18
  %72 = load double, ptr %11, align 8, !tbaa !13
  %73 = load ptr, ptr %9, align 8, !tbaa !5
  %74 = getelementptr inbounds nuw %struct.GeoHashRange, ptr %73, i32 0, i32 0
  %75 = load double, ptr %74, align 8, !tbaa !12
  %76 = fcmp olt double %72, %75
  br i1 %76, label %95, label %77

77:                                               ; preds = %66
  %78 = load double, ptr %11, align 8, !tbaa !13
  %79 = load ptr, ptr %9, align 8, !tbaa !5
  %80 = getelementptr inbounds nuw %struct.GeoHashRange, ptr %79, i32 0, i32 1
  %81 = load double, ptr %80, align 8, !tbaa !9
  %82 = fcmp ogt double %78, %81
  br i1 %82, label %95, label %83

83:                                               ; preds = %77
  %84 = load double, ptr %10, align 8, !tbaa !13
  %85 = load ptr, ptr %8, align 8, !tbaa !5
  %86 = getelementptr inbounds nuw %struct.GeoHashRange, ptr %85, i32 0, i32 0
  %87 = load double, ptr %86, align 8, !tbaa !12
  %88 = fcmp olt double %84, %87
  br i1 %88, label %95, label %89

89:                                               ; preds = %83
  %90 = load double, ptr %10, align 8, !tbaa !13
  %91 = load ptr, ptr %8, align 8, !tbaa !5
  %92 = getelementptr inbounds nuw %struct.GeoHashRange, ptr %91, i32 0, i32 1
  %93 = load double, ptr %92, align 8, !tbaa !9
  %94 = fcmp ogt double %90, %93
  br i1 %94, label %95, label %96

95:                                               ; preds = %89, %83, %77, %66
  store i32 0, ptr %7, align 4
  br label %144

96:                                               ; preds = %89
  call void @llvm.lifetime.start.p0(i64 8, ptr %14) #6
  %97 = load double, ptr %11, align 8, !tbaa !13
  %98 = load ptr, ptr %9, align 8, !tbaa !5
  %99 = getelementptr inbounds nuw %struct.GeoHashRange, ptr %98, i32 0, i32 0
  %100 = load double, ptr %99, align 8, !tbaa !12
  %101 = fsub double %97, %100
  %102 = load ptr, ptr %9, align 8, !tbaa !5
  %103 = getelementptr inbounds nuw %struct.GeoHashRange, ptr %102, i32 0, i32 1
  %104 = load double, ptr %103, align 8, !tbaa !9
  %105 = load ptr, ptr %9, align 8, !tbaa !5
  %106 = getelementptr inbounds nuw %struct.GeoHashRange, ptr %105, i32 0, i32 0
  %107 = load double, ptr %106, align 8, !tbaa !12
  %108 = fsub double %104, %107
  %109 = fdiv double %101, %108
  store double %109, ptr %14, align 8, !tbaa !13
  call void @llvm.lifetime.start.p0(i64 8, ptr %15) #6
  %110 = load double, ptr %10, align 8, !tbaa !13
  %111 = load ptr, ptr %8, align 8, !tbaa !5
  %112 = getelementptr inbounds nuw %struct.GeoHashRange, ptr %111, i32 0, i32 0
  %113 = load double, ptr %112, align 8, !tbaa !12
  %114 = fsub double %110, %113
  %115 = load ptr, ptr %8, align 8, !tbaa !5
  %116 = getelementptr inbounds nuw %struct.GeoHashRange, ptr %115, i32 0, i32 1
  %117 = load double, ptr %116, align 8, !tbaa !9
  %118 = load ptr, ptr %8, align 8, !tbaa !5
  %119 = getelementptr inbounds nuw %struct.GeoHashRange, ptr %118, i32 0, i32 0
  %120 = load double, ptr %119, align 8, !tbaa !12
  %121 = fsub double %117, %120
  %122 = fdiv double %114, %121
  store double %122, ptr %15, align 8, !tbaa !13
  %123 = load i8, ptr %12, align 1, !tbaa !14
  %124 = zext i8 %123 to i32
  %125 = zext i32 %124 to i64
  %126 = shl i64 1, %125
  %127 = uitofp i64 %126 to double
  %128 = load double, ptr %14, align 8, !tbaa !13
  %129 = fmul double %128, %127
  store double %129, ptr %14, align 8, !tbaa !13
  %130 = load i8, ptr %12, align 1, !tbaa !14
  %131 = zext i8 %130 to i32
  %132 = zext i32 %131 to i64
  %133 = shl i64 1, %132
  %134 = uitofp i64 %133 to double
  %135 = load double, ptr %15, align 8, !tbaa !13
  %136 = fmul double %135, %134
  store double %136, ptr %15, align 8, !tbaa !13
  %137 = load double, ptr %14, align 8, !tbaa !13
  %138 = fptoui double %137 to i32
  %139 = load double, ptr %15, align 8, !tbaa !13
  %140 = fptoui double %139 to i32
  %141 = call i64 @interleave64(i32 noundef %138, i32 noundef %140)
  %142 = load ptr, ptr %13, align 8, !tbaa !5
  %143 = getelementptr inbounds nuw %struct.GeoHashBits, ptr %142, i32 0, i32 0
  store i64 %141, ptr %143, align 8, !tbaa !15
  store i32 1, ptr %7, align 4
  call void @llvm.lifetime.end.p0(i64 8, ptr %15) #6
  call void @llvm.lifetime.end.p0(i64 8, ptr %14) #6
  br label %144

144:                                              ; preds = %96, %95, %65, %52
  %145 = load i32, ptr %7, align 4
  ret i32 %145
}