; Function Attrs: mustprogress nofree norecurse nosync nounwind willreturn memory(argmem: readwrite) uwtable
define dso_local range(i32 0, 2) i32 @geohashEncode(ptr noundef readonly captures(address_is_null) %0, ptr noundef readonly captures(address_is_null) %1, double noundef %2, double noundef %3, i8 noundef zeroext %4, ptr noundef writeonly captures(address_is_null) %5) local_unnamed_addr #1 {
  %7 = icmp eq ptr %5, null
  %8 = add i8 %4, -33
  %9 = icmp ult i8 %8, -32
  %or.cond5 = or i1 %7, %9
  %10 = icmp eq ptr %1, null
  %or.cond7 = or i1 %10, %or.cond5
  br i1 %or.cond7, label %55, label %11

11:                                               ; preds = %6
  %12 = getelementptr inbounds nuw i8, ptr %1, i64 8
  %13 = load double, ptr %12, align 8, !tbaa !5
  %14 = fcmp une double %13, 0.000000e+00
  br i1 %14, label %19, label %15

15:                                               ; preds = %11
  %16 = load double, ptr %1, align 8, !tbaa !10
  %17 = fcmp oeq double %16, 0.000000e+00
  %18 = icmp eq ptr %0, null
  %or.cond9 = or i1 %18, %17
  br i1 %or.cond9, label %55, label %20

19:                                               ; preds = %11
  %.old8 = icmp eq ptr %0, null
  br i1 %.old8, label %55, label %20

20:                                               ; preds = %15, %19
  %21 = getelementptr inbounds nuw i8, ptr %0, i64 8
  %22 = load double, ptr %21, align 8, !tbaa !5
  %23 = fcmp une double %22, 0.000000e+00
  br i1 %23, label %27, label %24

24:                                               ; preds = %20
  %25 = load double, ptr %0, align 8, !tbaa !10
  %26 = fcmp une double %25, 0.000000e+00
  br i1 %26, label %27, label %55

27:                                               ; preds = %24, %20
  %28 = tail call double @llvm.fabs.f64(double %2)
  %or.cond12 = fcmp ogt double %28, 1.800000e+02
  %29 = tail call double @llvm.fabs.f64(double %3)
  %30 = fcmp ogt double %29, 0x40554345B1A57F00
  %or.cond18 = or i1 %or.cond12, %30
  br i1 %or.cond18, label %55, label %31

31:                                               ; preds = %27
  store i64 0, ptr %5, align 8, !tbaa !11
  %32 = getelementptr inbounds nuw i8, ptr %5, i64 8
  store i8 %4, ptr %32, align 8, !tbaa !14
  %33 = load double, ptr %1, align 8, !tbaa !10
  %34 = fcmp olt double %3, %33
  %35 = fcmp ogt double %3, %13
  %or.cond = or i1 %35, %34
  br i1 %or.cond, label %55, label %36

36:                                               ; preds = %31
  %37 = load double, ptr %0, align 8, !tbaa !10
  %38 = fcmp olt double %2, %37
  %39 = fcmp ogt double %2, %22
  %or.cond66 = or i1 %39, %38
  br i1 %or.cond66, label %55, label %40

40:                                               ; preds = %36
  %41 = fsub double %3, %33
  %42 = fsub double %13, %33
  %43 = fdiv double %41, %42
  %44 = fsub double %2, %37
  %45 = fsub double %22, %37
  %46 = fdiv double %44, %45
  %47 = zext nneg i8 %4 to i64
  %48 = shl nuw nsw i64 1, %47
  %49 = uitofp nneg i64 %48 to double
  %50 = fmul double %43, %49
  %51 = fmul double %46, %49
  %52 = fptoui double %50 to i32
  %53 = fptoui double %51 to i32
  %54 = tail call fastcc i64 @interleave64(i32 noundef %52, i32 noundef %53)
  store i64 %54, ptr %5, align 8, !tbaa !11
  br label %55

55:                                               ; preds = %31, %36, %27, %6, %15, %19, %24, %40
  %.0 = phi i32 [ 1, %40 ], [ 0, %24 ], [ 0, %19 ], [ 0, %15 ], [ 0, %6 ], [ 0, %27 ], [ 0, %36 ], [ 0, %31 ]
  ret i32 %.0
}